target datalayout = "e-m:e-p270:32:32-p271:32:32-p272:64:64-i64:64-i128:128-f80:128-n8:16:32:64-S128"
target triple = "x86_64-pc-linux-gnu"

%"class.cv::optflow::OpticalFlowDual_TVL1" = type { %"class.cv::optflow::DualTVL1OpticalFlow", double, double, double, double, i32, i32, double, i32, i32, i8, double, i32, %"struct.cv::optflow::OpticalFlowDual_TVL1::dataMat" }
%"class.cv::optflow::DualTVL1OpticalFlow" = type { %"class.cv::DenseOpticalFlow" }
%"class.cv::DenseOpticalFlow" = type { %"class.cv::Algorithm" }
%"class.cv::Algorithm" = type { ptr }
%"struct.cv::optflow::OpticalFlowDual_TVL1::dataMat" = type { %"class.std::vector", %"class.std::vector", %"class.std::vector", %"class.std::vector", %"class.std::vector", %"class.cv::Mat_", %"class.cv::Mat_", %"class.cv::Mat_", %"class.cv::Mat_", %"class.cv::Mat_", %"class.cv::Mat_", %"class.cv::Mat_", %"class.cv::Mat_", %"class.cv::Mat_", %"class.cv::Mat_", %"class.cv::Mat_", %"class.cv::Mat_", %"class.cv::Mat_", %"class.cv::Mat_", %"class.cv::Mat_", %"class.cv::Mat_", %"class.cv::Mat_", %"class.cv::Mat_", %"class.cv::Mat_", %"class.cv::Mat_", %"class.cv::Mat_", %"class.cv::Mat_", %"class.cv::Mat_", %"class.cv::Mat_", %"class.cv::Mat_", %"class.cv::Mat_", %"class.cv::Mat_" }
%"class.std::vector" = type { %"struct.std::_Vector_base" }
%"struct.std::_Vector_base" = type { %"struct.std::_Vector_base<cv::Mat_<float>, std::allocator<cv::Mat_<float>>>::_Vector_impl" }
%"struct.std::_Vector_base<cv::Mat_<float>, std::allocator<cv::Mat_<float>>>::_Vector_impl" = type { %"struct.std::_Vector_base<cv::Mat_<float>, std::allocator<cv::Mat_<float>>>::_Vector_impl_data" }
%"struct.std::_Vector_base<cv::Mat_<float>, std::allocator<cv::Mat_<float>>>::_Vector_impl_data" = type { ptr, ptr, ptr }
%"class.cv::Mat_" = type { %"class.cv::Mat" }
%"class.cv::Mat" = type { i32, i32, i32, i32, ptr, ptr, ptr, ptr, ptr, ptr, %"struct.cv::MatSize", %"struct.cv::MatStep" }
%"struct.cv::MatSize" = type { ptr }
%"struct.cv::MatStep" = type { ptr, [2 x i64] }

; Function Attrs: inlinehint mustprogress uwtable
define linkonce_odr hidden void @_ZN2cv16DenseOpticalFlowC2Ev(ptr noundef nonnull align 8 dereferenceable(8) %0) unnamed_addr #5 comdat align 2 {
  %2 = alloca ptr, align 8
  store ptr %0, ptr %2, align 8, !tbaa !177
  %3 = load ptr, ptr %2, align 8
  call void @_ZN2cv9AlgorithmC2Ev(ptr noundef nonnull align 8 dereferenceable(8) %3)
  store ptr getelementptr inbounds inrange(-16, 80) ({ [12 x ptr] }, ptr @_ZTVN2cv16DenseOpticalFlowE, i32 0, i32 0, i32 2), ptr %3, align 8, !tbaa !8
  ret void
}

; Function Attrs: inlinehint mustprogress uwtable
define linkonce_odr hidden void @_ZN2cv7optflow19DualTVL1OpticalFlowC2Ev(ptr noundef nonnull align 8 dereferenceable(8) %0) unnamed_addr #5 comdat align 2 {
  %2 = alloca ptr, align 8
  store ptr %0, ptr %2, align 8, !tbaa !44
  %3 = load ptr, ptr %2, align 8
  call void @_ZN2cv16DenseOpticalFlowC2Ev(ptr noundef nonnull align 8 dereferenceable(8) %3)
  store ptr getelementptr inbounds inrange(-16, 272) ({ [36 x ptr] }, ptr @_ZTVN2cv7optflow19DualTVL1OpticalFlowE, i32 0, i32 0, i32 2), ptr %3, align 8, !tbaa !8
  ret void
}

; Function Attrs: mustprogress uwtable
define hidden void @_ZN2cv7optflow20OpticalFlowDual_TVL1C2Ev(ptr noundef nonnull align 8 dereferenceable(2800) %0) unnamed_addr #4 align 2 {
  %2 = alloca ptr, align 8
  store ptr %0, ptr %2, align 8, !tbaa !3
  %3 = load ptr, ptr %2, align 8
  call void @_ZN2cv7optflow19DualTVL1OpticalFlowC2Ev(ptr noundef nonnull align 8 dereferenceable(8) %3)
  store ptr getelementptr inbounds inrange(-16, 272) ({ [36 x ptr] }, ptr @_ZTVN2cv7optflow20OpticalFlowDual_TVL1E, i32 0, i32 0, i32 2), ptr %3, align 8, !tbaa !8
  %4 = getelementptr inbounds nuw %"class.cv::optflow::OpticalFlowDual_TVL1", ptr %3, i32 0, i32 13
  call void @_ZN2cv7optflow20OpticalFlowDual_TVL17dataMatC2Ev(ptr noundef nonnull align 8 dereferenceable(2712) %4) #3
  %5 = getelementptr inbounds nuw %"class.cv::optflow::OpticalFlowDual_TVL1", ptr %3, i32 0, i32 1
  store double 2.500000e-01, ptr %5, align 8, !tbaa !10
  %6 = getelementptr inbounds nuw %"class.cv::optflow::OpticalFlowDual_TVL1", ptr %3, i32 0, i32 2
  store double 1.500000e-01, ptr %6, align 8, !tbaa !33
  %7 = getelementptr inbounds nuw %"class.cv::optflow::OpticalFlowDual_TVL1", ptr %3, i32 0, i32 3
  store double 3.000000e-01, ptr %7, align 8, !tbaa !34
  %8 = getelementptr inbounds nuw %"class.cv::optflow::OpticalFlowDual_TVL1", ptr %3, i32 0, i32 5
  store i32 5, ptr %8, align 8, !tbaa !35
  %9 = getelementptr inbounds nuw %"class.cv::optflow::OpticalFlowDual_TVL1", ptr %3, i32 0, i32 6
  store i32 5, ptr %9, align 4, !tbaa !36
  %10 = getelementptr inbounds nuw %"class.cv::optflow::OpticalFlowDual_TVL1", ptr %3, i32 0, i32 7
  store double 1.000000e-02, ptr %10, align 8, !tbaa !37
  %11 = getelementptr inbounds nuw %"class.cv::optflow::OpticalFlowDual_TVL1", ptr %3, i32 0, i32 4
  store double 0.000000e+00, ptr %11, align 8, !tbaa !38
  %12 = getelementptr inbounds nuw %"class.cv::optflow::OpticalFlowDual_TVL1", ptr %3, i32 0, i32 8
  store i32 30, ptr %12, align 8, !tbaa !39
  %13 = getelementptr inbounds nuw %"class.cv::optflow::OpticalFlowDual_TVL1", ptr %3, i32 0, i32 9
  store i32 10, ptr %13, align 4, !tbaa !40
  %14 = getelementptr inbounds nuw %"class.cv::optflow::OpticalFlowDual_TVL1", ptr %3, i32 0, i32 10
  store i8 0, ptr %14, align 8, !tbaa !41
  %15 = getelementptr inbounds nuw %"class.cv::optflow::OpticalFlowDual_TVL1", ptr %3, i32 0, i32 12
  store i32 5, ptr %15, align 8, !tbaa !42
  %16 = getelementptr inbounds nuw %"class.cv::optflow::OpticalFlowDual_TVL1", ptr %3, i32 0, i32 11
  store double 8.000000e-01, ptr %16, align 8, !tbaa !43
  ret void
}