; Function Attrs: mustprogress uwtable
define hidden void @_ZN2cv7optflow20OpticalFlowDual_TVL1C2Ev(ptr noundef nonnull align 8 dereferenceable(2800) %0) unnamed_addr #3 align 2 {
  tail call void @_ZN2cv9AlgorithmC2Ev(ptr noundef nonnull align 8 dereferenceable(8) %0)
  store ptr getelementptr inbounds nuw inrange(-16, 272) (i8, ptr @_ZTVN2cv7optflow20OpticalFlowDual_TVL1E, i64 16), ptr %0, align 8, !tbaa !3
  %2 = getelementptr inbounds nuw i8, ptr %0, i64 88
  tail call void @_ZN2cv7optflow20OpticalFlowDual_TVL17dataMatC2Ev(ptr noundef nonnull align 8 dereferenceable(2712) %2) #22
  %3 = getelementptr inbounds nuw i8, ptr %0, i64 8
  store double 2.500000e-01, ptr %3, align 8, !tbaa !6
  %4 = getelementptr inbounds nuw i8, ptr %0, i64 16
  store double 1.500000e-01, ptr %4, align 8, !tbaa !31
  %5 = getelementptr inbounds nuw i8, ptr %0, i64 24
  store double 3.000000e-01, ptr %5, align 8, !tbaa !32
  %6 = getelementptr inbounds nuw i8, ptr %0, i64 40
  store i32 5, ptr %6, align 8, !tbaa !33
  %7 = getelementptr inbounds nuw i8, ptr %0, i64 44
  store i32 5, ptr %7, align 4, !tbaa !34
  %8 = getelementptr inbounds nuw i8, ptr %0, i64 48
  store double 1.000000e-02, ptr %8, align 8, !tbaa !35
  %9 = getelementptr inbounds nuw i8, ptr %0, i64 32
  store double 0.000000e+00, ptr %9, align 8, !tbaa !36
  %10 = getelementptr inbounds nuw i8, ptr %0, i64 56
  store i32 30, ptr %10, align 8, !tbaa !37
  %11 = getelementptr inbounds nuw i8, ptr %0, i64 60
  store i32 10, ptr %11, align 4, !tbaa !38
  %12 = getelementptr inbounds nuw i8, ptr %0, i64 64
  store i8 0, ptr %12, align 8, !tbaa !39
  %13 = getelementptr inbounds nuw i8, ptr %0, i64 80
  store i32 5, ptr %13, align 8, !tbaa !40
  %14 = getelementptr inbounds nuw i8, ptr %0, i64 72
  store double 8.000000e-01, ptr %14, align 8, !tbaa !41
  ret void
}